target datalayout = "e-m:e-p270:32:32-p271:32:32-p272:64:64-i64:64-i128:128-f80:128-n8:16:32:64-S128"
target triple = "x86_64-pc-linux-gnu"

%struct.ImVec2 = type { float, float }
%struct.ImVec4 = type { float, float, float, float }
%struct.ImDrawListSharedData = type <{ %struct.ImVec2, ptr, ptr, float, float, float, float, float, i32, %struct.ImVec4, %struct.ImVector, [48 x %struct.ImVec2], float, [64 x i8], [4 x i8] }>
%struct.ImVector = type { i32, i32, ptr }
%struct.ImDrawList = type { %struct.ImVector.0, %struct.ImVector.1, %struct.ImVector.2, i32, i32, ptr, ptr, ptr, %struct.ImVector, %struct.ImDrawCmdHeader, %struct.ImDrawListSplitter, %struct.ImVector.4, %struct.ImVector.5, %struct.ImVector.6, float, ptr }
%struct.ImVector.0 = type { i32, i32, ptr }
%struct.ImVector.1 = type { i32, i32, ptr }
%struct.ImVector.2 = type { i32, i32, ptr }
%struct.ImDrawCmdHeader = type <{ %struct.ImVec4, i64, i32, [4 x i8] }>
%struct.ImDrawListSplitter = type { i32, i32, %struct.ImVector.3 }
%struct.ImVector.3 = type { i32, i32, ptr }
%struct.ImVector.4 = type { i32, i32, ptr }
%struct.ImVector.5 = type { i32, i32, ptr }
%struct.ImVector.6 = type { i32, i32, ptr }

; Function Attrs: mustprogress nounwind uwtable
define linkonce_odr void @_ZN6ImVec2C2Eff(ptr noundef nonnull align 4 dereferenceable(8) %0, float noundef %1, float noundef %2) unnamed_addr #3 comdat align 2 {
  %4 = alloca ptr, align 8
  %5 = alloca float, align 4
  %6 = alloca float, align 4
  store ptr %0, ptr %4, align 8, !tbaa !33
  store float %1, ptr %5, align 4, !tbaa !11
  store float %2, ptr %6, align 4, !tbaa !11
  %7 = load ptr, ptr %4, align 8
  %8 = getelementptr inbounds nuw %struct.ImVec2, ptr %7, i32 0, i32 0
  %9 = load float, ptr %5, align 4, !tbaa !11
  store float %9, ptr %8, align 4, !tbaa !34
  %10 = getelementptr inbounds nuw %struct.ImVec2, ptr %7, i32 0, i32 1
  %11 = load float, ptr %6, align 4, !tbaa !11
  store float %11, ptr %10, align 4, !tbaa !35
  ret void
}

; Function Attrs: mustprogress uwtable
define void @_ZN10ImDrawList22PushClipRectFullScreenEv(ptr noundef nonnull align 8 dereferenceable(216) %0) #6 align 2 {
  %2 = alloca ptr, align 8
  %3 = alloca %struct.ImVec2, align 4
  %4 = alloca %struct.ImVec2, align 4
  store ptr %0, ptr %2, align 8, !tbaa !43
  %5 = load ptr, ptr %2, align 8
  call void @llvm.lifetime.start.p0(i64 8, ptr %3) #17
  %6 = getelementptr inbounds nuw %struct.ImDrawList, ptr %5, i32 0, i32 5
  %7 = load ptr, ptr %6, align 8, !tbaa !45
  %8 = getelementptr inbounds nuw %struct.ImDrawListSharedData, ptr %7, i32 0, i32 9
  %9 = getelementptr inbounds nuw %struct.ImVec4, ptr %8, i32 0, i32 0
  %10 = load float, ptr %9, align 8, !tbaa !144
  %11 = getelementptr inbounds nuw %struct.ImDrawList, ptr %5, i32 0, i32 5
  %12 = load ptr, ptr %11, align 8, !tbaa !45
  %13 = getelementptr inbounds nuw %struct.ImDrawListSharedData, ptr %12, i32 0, i32 9
  %14 = getelementptr inbounds nuw %struct.ImVec4, ptr %13, i32 0, i32 1
  %15 = load float, ptr %14, align 4, !tbaa !145
  call void @_ZN6ImVec2C2Eff(ptr noundef nonnull align 4 dereferenceable(8) %3, float noundef %10, float noundef %15)
  call void @llvm.lifetime.start.p0(i64 8, ptr %4) #17
  %16 = getelementptr inbounds nuw %struct.ImDrawList, ptr %5, i32 0, i32 5
  %17 = load ptr, ptr %16, align 8, !tbaa !45
  %18 = getelementptr inbounds nuw %struct.ImDrawListSharedData, ptr %17, i32 0, i32 9
  %19 = getelementptr inbounds nuw %struct.ImVec4, ptr %18, i32 0, i32 2
  %20 = load float, ptr %19, align 8, !tbaa !146
  %21 = getelementptr inbounds nuw %struct.ImDrawList, ptr %5, i32 0, i32 5
  %22 = load ptr, ptr %21, align 8, !tbaa !45
  %23 = getelementptr inbounds nuw %struct.ImDrawListSharedData, ptr %22, i32 0, i32 9
  %24 = getelementptr inbounds nuw %struct.ImVec4, ptr %23, i32 0, i32 3
  %25 = load float, ptr %24, align 4, !tbaa !147
  call void @_ZN6ImVec2C2Eff(ptr noundef nonnull align 4 dereferenceable(8) %4, float noundef %20, float noundef %25)
  call void @_ZN10ImDrawList12PushClipRectERK6ImVec2S2_b(ptr noundef nonnull align 8 dereferenceable(216) %5, ptr noundef nonnull align 4 dereferenceable(8) %3, ptr noundef nonnull align 4 dereferenceable(8) %4, i1 noundef zeroext false)
  call void @llvm.lifetime.end.p0(i64 8, ptr %4) #17
  call void @llvm.lifetime.end.p0(i64 8, ptr %3) #17
  ret void
}