; Function Attrs: mustprogress uwtable
define void @_ZN10ImDrawList22PushClipRectFullScreenEv(ptr noundef nonnull align 8 captures(none) dereferenceable(216) %0) local_unnamed_addr #12 align 2 {
  %2 = alloca %struct.ImVec2, align 4
  %3 = alloca %struct.ImVec2, align 4
  call void @llvm.lifetime.start.p0(i64 8, ptr nonnull %2) #42
  %4 = getelementptr inbounds nuw i8, ptr %0, i64 56
  %5 = load ptr, ptr %4, align 8, !tbaa !25
  %6 = getelementptr inbounds nuw i8, ptr %5, i64 48
  %7 = load float, ptr %6, align 8, !tbaa !105
  %8 = getelementptr inbounds nuw i8, ptr %5, i64 52
  %9 = load float, ptr %8, align 4, !tbaa !106
  store float %7, ptr %2, align 4, !tbaa !103
  %10 = getelementptr inbounds nuw i8, ptr %2, i64 4
  store float %9, ptr %10, align 4, !tbaa !104
  call void @llvm.lifetime.start.p0(i64 8, ptr nonnull %3) #42
  %11 = getelementptr inbounds nuw i8, ptr %5, i64 56
  %12 = load float, ptr %11, align 8, !tbaa !107
  %13 = getelementptr inbounds nuw i8, ptr %5, i64 60
  %14 = load float, ptr %13, align 4, !tbaa !108
  store float %12, ptr %3, align 4, !tbaa !103
  %15 = getelementptr inbounds nuw i8, ptr %3, i64 4
  store float %14, ptr %15, align 4, !tbaa !104
  call void @_ZN10ImDrawList12PushClipRectERK6ImVec2S2_b(ptr noundef nonnull align 8 dereferenceable(216) %0, ptr noundef nonnull align 4 dereferenceable(8) %2, ptr noundef nonnull align 4 dereferenceable(8) %3, i1 noundef zeroext false)
  call void @llvm.lifetime.end.p0(i64 8, ptr nonnull %3) #42
  call void @llvm.lifetime.end.p0(i64 8, ptr nonnull %2) #42
  ret void
}